target datalayout = "e-m:e-p270:32:32-p271:32:32-p272:64:64-i64:64-i128:128-f80:128-n8:16:32:64-S128"
target triple = "x86_64-unknown-linux-gnu"

%struct.dsa_st = type { i64, ptr, ptr, ptr, ptr, ptr, ptr, ptr, i32, %union.crypto_mutex_st, ptr, i32, %struct.crypto_ex_data_st }
%union.crypto_mutex_st = type { double, [48 x i8] }
%struct.crypto_ex_data_st = type { ptr }

@.str = private unnamed_addr constant [120 x i8] c"generated/home/dtcxzyw/WorkSpace/Projects/compilers/llvm-opt-benchmark/bench/libquic/libquic/boringssl/crypto/dsa/dsa.c\00", align 1

; Function Attrs: nounwind uwtable
define hidden ptr @DSA_new() #0 {
entry:
  %retval = alloca ptr, align 8
  %dsa = alloca ptr, align 8
  %call = call noalias ptr @malloc(i64 noundef 152) #7
  store ptr %call, ptr %dsa, align 8
  %0 = load ptr, ptr %dsa, align 8
  %cmp = icmp eq ptr %0, null
  br i1 %cmp, label %if.then, label %if.end

if.then:                                          ; preds = %entry
  call void @ERR_put_error(i32 noundef 10, i32 noundef 0, i32 noundef 65, ptr noundef @.str, i32 noundef 89)
  store ptr null, ptr %retval, align 8
  br label %return

if.end:                                           ; preds = %entry
  %1 = load ptr, ptr %dsa, align 8
  call void @llvm.memset.p0.i64(ptr align 8 %1, i8 0, i64 152, i1 false)
  %2 = load ptr, ptr %dsa, align 8
  %references = getelementptr inbounds %struct.dsa_st, ptr %2, i32 0, i32 11
  store i32 1, ptr %references, align 8
  %3 = load ptr, ptr %dsa, align 8
  %method_mont_p_lock = getelementptr inbounds %struct.dsa_st, ptr %3, i32 0, i32 9
  call void @CRYPTO_MUTEX_init(ptr noundef %method_mont_p_lock)
  %4 = load ptr, ptr %dsa, align 8
  %ex_data = getelementptr inbounds %struct.dsa_st, ptr %4, i32 0, i32 12
  call void @CRYPTO_new_ex_data(ptr noundef %ex_data)
  %5 = load ptr, ptr %dsa, align 8
  store ptr %5, ptr %retval, align 8
  br label %return

return:                                           ; preds = %if.end, %if.then
  %6 = load ptr, ptr %retval, align 8
  ret ptr %6
}