; Function Attrs: nounwind uwtable
define hidden noundef ptr @DSA_new() local_unnamed_addr #0 {
entry:
  %calloc = tail call dereferenceable_or_null(152) ptr @calloc(i64 1, i64 152)
  %cmp = icmp eq ptr %calloc, null
  br i1 %cmp, label %if.then, label %if.end

if.then:                                          ; preds = %entry
  tail call void @ERR_put_error(i32 noundef 10, i32 noundef 0, i32 noundef 65, ptr noundef nonnull @.str, i32 noundef 89) #8
  br label %return

if.end:                                           ; preds = %entry
  %references = getelementptr inbounds nuw i8, ptr %calloc, i64 136
  store i32 1, ptr %references, align 8
  %method_mont_p_lock = getelementptr inbounds nuw i8, ptr %calloc, i64 72
  tail call void @CRYPTO_MUTEX_init(ptr noundef nonnull %method_mont_p_lock) #8
  %ex_data = getelementptr inbounds nuw i8, ptr %calloc, i64 144
  tail call void @CRYPTO_new_ex_data(ptr noundef nonnull %ex_data) #8
  br label %return

return:                                           ; preds = %if.end, %if.then
  ret ptr %calloc
}